--- !tapi-tbd
tbd-version:     4
targets:         [ x86_64-macos, arm64-macos, arm64e-macos ]
install-name:    '/System/Library/PrivateFrameworks/WebGPU.framework/Versions/A/WebGPU'
current-version: 623.1.14
swift-abi-version: 7
exports:
  - targets:         [ x86_64-macos, arm64-macos, arm64e-macos ]
    symbols:         [ __Z13wgpuDDMeshAddP14WGPUDDMeshImplP20WGPUDDMeshDescriptor, 
                       __Z14wgpuBufferCopyP14WGPUBufferImplNSt3__14spanIKhLm18446744073709551615EEEm, 
                       __Z15wgpuBufferUnmapP14WGPUBufferImpl, __Z15wgpuQueueSubmitP13WGPUQueueImplmPKP21WGPUCommandBufferImpl, 
                       __Z16wgpuDDMeshCreateP16WGPUInstanceImplPK26WGPUDDCreateMeshDescriptor, 
                       __Z16wgpuDDMeshRenderP14WGPUDDMeshImpl, __Z16wgpuDDMeshUpdateP14WGPUDDMeshImplP26WGPUDDUpdateMeshDescriptor, 
                       __Z16wgpuDDTextureAddP14WGPUDDMeshImplP23WGPUDDTextureDescriptor, 
                       __Z16wgpuQueueIsValidP13WGPUQueueImpl, __Z16wgpuQueueReleaseP13WGPUQueueImpl, 
                       __Z17wgpuBufferDestroyP14WGPUBufferImpl, __Z17wgpuBufferIsValidP14WGPUBufferImpl, 
                       __Z17wgpuBufferReleaseP14WGPUBufferImpl, __Z17wgpuDDMaterialAddP14WGPUDDMeshImplP24WGPUDDMaterialDescriptor, 
                       __Z17wgpuDDMeshReleaseP14WGPUDDMeshImpl, __Z17wgpuDefaultLimitsv, 
                       __Z17wgpuDeviceDestroyP14WGPUDeviceImpl, __Z17wgpuDeviceIsValidP14WGPUDeviceImpl, 
                       __Z17wgpuDeviceReleaseP14WGPUDeviceImpl, __Z17wgpuQueueSetLabelP13WGPUQueueImplPKc, 
                       __Z17wgpuXRViewIsValidP14WGPUXRViewImpl, __Z17wgpuXRViewReleaseP14WGPUXRViewImpl, 
                       __Z18wgpuAdapterIsValidP15WGPUAdapterImpl, __Z18wgpuAdapterReleaseP15WGPUAdapterImpl, 
                       __Z18wgpuBufferGetUsageP14WGPUBufferImpl, __Z18wgpuBufferMapAsyncP14WGPUBufferImpljmmPFv24WGPUBufferMapAsyncStatusPvES2_, 
                       __Z18wgpuBufferSetLabelP14WGPUBufferImplPKc, __Z18wgpuCreateInstancePK22WGPUInstanceDescriptor, 
                       __Z18wgpuDeviceGetQueueP14WGPUDeviceImpl, __Z18wgpuDeviceSetLabelP14WGPUDeviceImplPKc, 
                       __Z18wgpuGetProcAddressP14WGPUDeviceImplPKc, __Z18wgpuQueueReferenceP13WGPUQueueImpl, 
                       __Z18wgpuSamplerIsValidP15WGPUSamplerImpl, __Z18wgpuSamplerReleaseP15WGPUSamplerImpl, 
                       __Z18wgpuSurfaceReleaseP15WGPUSurfaceImpl, __Z18wgpuTextureDestroyP15WGPUTextureImpl, 
                       __Z18wgpuTextureIsValidP15WGPUTextureImpl, __Z18wgpuTextureReleaseP15WGPUTextureImpl, 
                       __Z19wgpuBufferReferenceP14WGPUBufferImpl, __Z19wgpuDDMeshReferenceP14WGPUDDMeshImpl, 
                       __Z19wgpuDDTextureUpdateP14WGPUDDMeshImplP29WGPUDDUpdateTextureDescriptor, 
                       __Z19wgpuDeviceGetLimitsP14WGPUDeviceImplP19WGPUSupportedLimits, 
                       __Z19wgpuDeviceReferenceP14WGPUDeviceImpl, __Z19wgpuInstanceReleaseP16WGPUInstanceImpl, 
                       __Z19wgpuQuerySetDestroyP16WGPUQuerySetImpl, __Z19wgpuQuerySetGetTypeP16WGPUQuerySetImpl, 
                       __Z19wgpuQuerySetIsValidP16WGPUQuerySetImpl, __Z19wgpuQuerySetReleaseP16WGPUQuerySetImpl, 
                       __Z19wgpuSamplerSetLabelP15WGPUSamplerImplPKc, __Z19wgpuTextureGetUsageP15WGPUTextureImpl, 
                       __Z19wgpuTextureGetWidthP15WGPUTextureImpl, __Z19wgpuTextureSetLabelP15WGPUTextureImplPKc, 
                       __Z19wgpuXRViewReferenceP14WGPUXRViewImpl, __Z20wgpuAdapterGetLimitsP15WGPUAdapterImplP19WGPUSupportedLimits, 
                       __Z20wgpuAdapterReferenceP15WGPUAdapterImpl, __Z20wgpuBindGroupIsValidP17WGPUBindGroupImpl, 
                       __Z20wgpuBindGroupReleaseP17WGPUBindGroupImpl, __Z20wgpuDDMaterialUpdateP14WGPUDDMeshImplP30WGPUDDUpdateMaterialDescriptor, 
                       __Z20wgpuDeviceHasFeatureP14WGPUDeviceImpl15WGPUFeatureName, 
                       __Z20wgpuQuerySetGetCountP16WGPUQuerySetImpl, __Z20wgpuQuerySetSetLabelP16WGPUQuerySetImplPKc, 
                       __Z20wgpuQueueWriteBufferP13WGPUQueueImplP14WGPUBufferImplyNSt3__14spanIhLm18446744073709551615EEE, 
                       __Z20wgpuSamplerReferenceP15WGPUSamplerImpl, __Z20wgpuSurfaceReferenceP15WGPUSurfaceImpl, 
                       __Z20wgpuSwapChainPresentP17WGPUSwapChainImplj, __Z20wgpuSwapChainReleaseP17WGPUSwapChainImpl, 
                       __Z20wgpuTextureGetFormatP15WGPUTextureImpl, __Z20wgpuTextureGetHeightP15WGPUTextureImpl, 
                       __Z20wgpuTextureReferenceP15WGPUTextureImpl, __Z20wgpuTextureUndestroyP15WGPUTextureImpl, 
                       __Z20wgpuXRBindingIsValidP17WGPUXRBindingImpl, __Z20wgpuXRBindingReleaseP17WGPUXRBindingImpl, 
                       __Z21wgpuAdapterHasFeatureP15WGPUAdapterImpl15WGPUFeatureName, 
                       __Z21wgpuBindGroupSetLabelP17WGPUBindGroupImplPKc, __Z21wgpuBufferGetMapStateP14WGPUBufferImpl, 
                       __Z21wgpuInstanceReferenceP16WGPUInstanceImpl, __Z21wgpuQuerySetReferenceP16WGPUQuerySetImpl, 
                       __Z21wgpuQueueWriteTextureP13WGPUQueueImplPK20WGPUImageCopyTextureNSt3__14spanIhLm18446744073709551615EEEPK21WGPUTextureDataLayoutPK12WGPUExtent3D, 
                       __Z21wgpuTextureCreateViewP15WGPUTextureImplPK25WGPUTextureViewDescriptor, 
                       __Z21wgpuXRSubImageIsValidP18WGPUXRSubImageImpl, __Z21wgpuXRSubImageReleaseP18WGPUXRSubImageImpl, 
                       __Z22wgpuAdapterFeatureName15WGPUFeatureName, __Z22wgpuBindGroupReferenceP17WGPUBindGroupImpl, 
                       __Z22wgpuDeviceCreateBufferP14WGPUDeviceImplPK20WGPUBufferDescriptor, 
                       __Z22wgpuSwapChainReferenceP17WGPUSwapChainImpl, __Z22wgpuTextureViewIsValidP19WGPUTextureViewImpl, 
                       __Z22wgpuTextureViewReleaseP19WGPUTextureViewImpl, __Z22wgpuXRBindingReferenceP17WGPUXRBindingImpl, 
                       __Z23wgpuAdapterXRCompatibleP15WGPUAdapterImpl, __Z23wgpuDeviceCreateSamplerP14WGPUDeviceImplPK21WGPUSamplerDescriptor, 
                       __Z23wgpuDeviceCreateTextureP14WGPUDeviceImplPK21WGPUTextureDescriptor, 
                       __Z23wgpuDevicePopErrorScopeP14WGPUDeviceImplPFv13WGPUErrorTypePKcPvES4_, 
                       __Z23wgpuRenderBundleIsValidP20WGPURenderBundleImpl, __Z23wgpuRenderBundleReleaseP20WGPURenderBundleImpl, 
                       __Z23wgpuShaderModuleIsValidP20WGPUShaderModuleImpl, __Z23wgpuShaderModuleReleaseP20WGPUShaderModuleImpl, 
                       __Z23wgpuTextureGetDimensionP15WGPUTextureImpl, __Z23wgpuTextureViewSetLabelP19WGPUTextureViewImplPKc, 
                       __Z23wgpuXRSubImageReferenceP18WGPUXRSubImageImpl, __Z24wgpuAdapterGetPropertiesP15WGPUAdapterImplP21WGPUAdapterProperties, 
                       __Z24wgpuAdapterRequestDeviceP15WGPUAdapterImplPK20WGPUDeviceDescriptorPFv23WGPURequestDeviceStatusP14WGPUDeviceImplPKcPvES9_, 
                       __Z24wgpuBufferGetCurrentSizeP14WGPUBufferImpl, __Z24wgpuBufferGetInitialSizeP14WGPUBufferImpl, 
                       __Z24wgpuBufferGetMappedRangeP14WGPUBufferImplmm, __Z24wgpuCommandBufferIsValidP21WGPUCommandBufferImpl, 
                       __Z24wgpuCommandBufferReleaseP21WGPUCommandBufferImpl, __Z24wgpuCommandEncoderFinishP22WGPUCommandEncoderImplPK27WGPUCommandBufferDescriptor, 
                       __Z24wgpuDeviceCreateQuerySetP14WGPUDeviceImplPK22WGPUQuerySetDescriptor, 
                       __Z24wgpuDevicePushErrorScopeP14WGPUDeviceImpl15WGPUErrorFilter, 
                       __Z24wgpuRenderBundleSetLabelP20WGPURenderBundleImplPKc, __Z24wgpuRenderPassEncoderEndP25WGPURenderPassEncoderImpl, 
                       __Z24wgpuShaderModuleSetLabelP20WGPUShaderModuleImplPKc, __Z24wgpuTextureViewReferenceP19WGPUTextureViewImpl, 
                       __Z25wgpuCommandBufferSetLabelP21WGPUCommandBufferImplPKc, 
                       __Z25wgpuCommandEncoderIsValidP22WGPUCommandEncoderImpl, __Z25wgpuCommandEncoderReleaseP22WGPUCommandEncoderImpl, 
                       __Z25wgpuComputePassEncoderEndP26WGPUComputePassEncoderImpl, 
                       __Z25wgpuDeviceCreateBindGroupP14WGPUDeviceImplPK23WGPUBindGroupDescriptor, 
                       __Z25wgpuDeviceCreateSwapChainP14WGPUDeviceImplP15WGPUSurfaceImplPK23WGPUSwapChainDescriptor, 
                       __Z25wgpuDeviceCreateXRBindingP14WGPUDeviceImpl, __Z25wgpuExternalTextureUpdateP23WGPUExternalTextureImplP10__CVBuffer, 
                       __Z25wgpuInstanceCreateSurfaceP16WGPUInstanceImplPK21WGPUSurfaceDescriptor, 
                       __Z25wgpuInstanceProcessEventsP16WGPUInstanceImpl, __Z25wgpuPipelineLayoutIsValidP22WGPUPipelineLayoutImpl, 
                       __Z25wgpuPipelineLayoutReleaseP22WGPUPipelineLayoutImpl, __Z25wgpuRenderBundleReferenceP20WGPURenderBundleImpl, 
                       __Z25wgpuRenderPassEncoderDrawP25WGPURenderPassEncoderImpljjjj, 
                       __Z25wgpuRenderPipelineIsValidP22WGPURenderPipelineImpl, __Z25wgpuRenderPipelineReleaseP22WGPURenderPipelineImpl, 
                       __Z25wgpuShaderModuleReferenceP20WGPUShaderModuleImpl, __Z25wgpuTextureGetSampleCountP15WGPUTextureImpl, 
                       __Z26wgpuBindGroupLayoutIsValidP23WGPUBindGroupLayoutImpl, 
                       __Z26wgpuBindGroupLayoutReleaseP23WGPUBindGroupLayoutImpl, 
                       __Z26wgpuBindingGetViewSubImageP17WGPUXRBindingImplP25WGPUXRProjectionLayerImpl, 
                       __Z26wgpuCommandBufferReferenceP21WGPUCommandBufferImpl, __Z26wgpuCommandEncoderSetLabelP22WGPUCommandEncoderImplPKc, 
                       __Z26wgpuComputePipelineIsValidP23WGPUComputePipelineImpl, 
                       __Z26wgpuComputePipelineReleaseP23WGPUComputePipelineImpl, 
                       __Z26wgpuExternalTextureDestroyP23WGPUExternalTextureImpl, 
                       __Z26wgpuExternalTextureIsValidP23WGPUExternalTextureImpl, 
                       __Z26wgpuExternalTextureReleaseP23WGPUExternalTextureImpl, 
                       __Z26wgpuInstanceRequestAdapterP16WGPUInstanceImplPK25WGPURequestAdapterOptionsPFv24WGPURequestAdapterStatusP15WGPUAdapterImplPKcPvES9_, 
                       __Z26wgpuPipelineLayoutSetLabelP22WGPUPipelineLayoutImplPKc, 
                       __Z26wgpuRenderPipelineSetLabelP22WGPURenderPipelineImplPKc, 
                       __Z27wgpuBindGroupLayoutSetLabelP23WGPUBindGroupLayoutImplPKc, 
                       __Z27wgpuBufferGetBufferContentsP14WGPUBufferImpl, __Z27wgpuCommandEncoderReferenceP22WGPUCommandEncoderImpl, 
                       __Z27wgpuComputePipelineSetLabelP23WGPUComputePipelineImplPKc, 
                       __Z27wgpuDeviceEnumerateFeaturesP14WGPUDeviceImplP15WGPUFeatureName, 
                       __Z27wgpuPipelineLayoutReferenceP22WGPUPipelineLayoutImpl, 
                       __Z27wgpuRenderBundleEncoderDrawP27WGPURenderBundleEncoderImpljjjj, 
                       __Z27wgpuRenderPipelineReferenceP22WGPURenderPipelineImpl, 
                       __Z27wgpuTextureGetMipLevelCountP15WGPUTextureImpl, __Z28wgpuAdapterEnumerateFeaturesP15WGPUAdapterImplP15WGPUFeatureName, 
                       __Z28wgpuBindGroupLayoutReferenceP23WGPUBindGroupLayoutImpl, 
                       __Z28wgpuComputePipelineReferenceP23WGPUComputePipelineImpl, 
                       __Z28wgpuDeviceCreateShaderModuleP14WGPUDeviceImplPK26WGPUShaderModuleDescriptor, 
                       __Z28wgpuExternalTextureReferenceP23WGPUExternalTextureImpl, 
                       __Z28wgpuExternalTextureUndestroyP23WGPUExternalTextureImpl, 
                       __Z28wgpuQueueOnSubmittedWorkDoneP13WGPUQueueImplPFv23WGPUQueueWorkDoneStatusPvES2_, 
                       __Z28wgpuRenderPassEncoderIsValidP25WGPURenderPassEncoderImpl, 
                       __Z28wgpuRenderPassEncoderReleaseP25WGPURenderPassEncoderImpl, 
                       __Z28wgpuXRProjectionLayerIsValidP25WGPUXRProjectionLayerImpl, 
                       __Z28wgpuXRProjectionLayerReleaseP25WGPUXRProjectionLayerImpl, 
                       __Z29wgpuCommandEncoderClearBufferP22WGPUCommandEncoderImplP14WGPUBufferImplyy, 
                       __Z29wgpuComputePassEncoderIsValidP26WGPUComputePassEncoderImpl, 
                       __Z29wgpuComputePassEncoderReleaseP26WGPUComputePassEncoderImpl, 
                       __Z29wgpuDevicePauseErrorReportingP14WGPUDeviceImplj, __Z29wgpuRenderBundleEncoderFinishP27WGPURenderBundleEncoderImplPK26WGPURenderBundleDescriptor, 
                       __Z29wgpuRenderPassEncoderSetLabelP25WGPURenderPassEncoderImplPKc, 
                       __Z29wgpuSurfaceGetPreferredFormatP15WGPUSurfaceImplP15WGPUAdapterImpl, 
                       __Z29wgpuXRSubImageGetColorTextureP18WGPUXRSubImageImpl, __Z30wgpuComputePassEncoderSetLabelP26WGPUComputePassEncoderImplPKc, 
                       __Z30wgpuDeviceCreateCommandEncoderP14WGPUDeviceImplPK28WGPUCommandEncoderDescriptor, 
                       __Z30wgpuDeviceCreatePipelineLayoutP14WGPUDeviceImplPK28WGPUPipelineLayoutDescriptor, 
                       __Z30wgpuDeviceCreateRenderPipelineP14WGPUDeviceImplPK28WGPURenderPipelineDescriptor, 
                       __Z30wgpuPresentationContextIsValidP15WGPUSurfaceImpl, __Z30wgpuRenderBundleEncoderIsValidP27WGPURenderBundleEncoderImpl, 
                       __Z30wgpuRenderBundleEncoderReleaseP27WGPURenderBundleEncoderImpl, 
                       __Z30wgpuRenderPassEncoderReferenceP25WGPURenderPassEncoderImpl, 
                       __Z30wgpuSwapChainGetCurrentTextureP17WGPUSwapChainImplj, 
                       __Z30wgpuXRProjectionLayerReferenceP25WGPUXRProjectionLayerImpl, 
                       __Z31wgpuCommandEncoderPopDebugGroupP22WGPUCommandEncoderImpl, 
                       __Z31wgpuComputePassEncoderReferenceP26WGPUComputePassEncoderImpl, 
                       __Z31wgpuDeviceCreateBindGroupLayoutP14WGPUDeviceImplPK29WGPUBindGroupLayoutDescriptor, 
                       __Z31wgpuDeviceCreateComputePipelineP14WGPUDeviceImplPK29WGPUComputePipelineDescriptor, 
                       __Z31wgpuDeviceImportExternalTextureP14WGPUDeviceImplPK29WGPUExternalTextureDescriptor, 
                       __Z31wgpuDeviceSetDeviceLostCallbackP14WGPUDeviceImplPFv20WGPUDeviceLostReasonPKcPvES4_, 
                       __Z31wgpuRenderBundleEncoderSetLabelP27WGPURenderBundleEncoderImplPKc, 
                       __Z31wgpuXRProjectionLayerStartFrameP25WGPUXRProjectionLayerImplmON3WTF13MachSendRightES3_S3_mjjONS1_6VectorIfLm0ENS1_15CrashOnOverflowELm16ENS1_10FastMallocEEES8_S8_, 
                       __Z32wgpuCommandEncoderPushDebugGroupP22WGPUCommandEncoderImplPKc, 
                       __Z32wgpuCommandEncoderWriteTimestampP22WGPUCommandEncoderImplP16WGPUQuerySetImplj, 
                       __Z32wgpuRenderBundleEncoderReferenceP27WGPURenderBundleEncoderImpl, 
                       __Z32wgpuRenderPassEncoderDrawIndexedP25WGPURenderPassEncoderImpljjjij, 
                       __Z32wgpuRenderPassEncoderSetPipelineP25WGPURenderPassEncoderImplP22WGPURenderPipelineImpl, 
                       __Z32wgpuRenderPassEncoderSetViewportP25WGPURenderPassEncoderImplffffff, 
                       __Z32wgpuTextureGetDepthOrArrayLayersP15WGPUTextureImpl, __Z33wgpuCommandEncoderBeginRenderPassP22WGPUCommandEncoderImplPK24WGPURenderPassDescriptor, 
                       __Z33wgpuCommandEncoderResolveQuerySetP22WGPUCommandEncoderImplP16WGPUQuerySetImpljjP14WGPUBufferImply, 
                       __Z33wgpuComputePassEncoderSetPipelineP26WGPUComputePassEncoderImplP23WGPUComputePipelineImpl, 
                       __Z33wgpuDeviceClearDeviceLostCallbackP14WGPUDeviceImpl, __Z33wgpuRenderPassEncoderDrawIndirectP25WGPURenderPassEncoderImplP14WGPUBufferImply, 
                       __Z33wgpuRenderPassEncoderSetBindGroupP25WGPURenderPassEncoderImpljP17WGPUBindGroupImplONSt3__18optionalIN3WTF6VectorIjLm0ENS5_15CrashOnOverflowELm16ENS5_10FastMallocEEEEE, 
                       __Z34wgpuBindingCreateXRProjectionLayerP17WGPUXRBindingImpl17WGPUTextureFormatPS1_jd, 
                       __Z34wgpuCommandEncoderBeginComputePassP22WGPUCommandEncoderImplPK25WGPUComputePassDescriptor, 
                       __Z34wgpuComputePassEncoderSetBindGroupP26WGPUComputePassEncoderImpljP17WGPUBindGroupImplONSt3__18optionalIN3WTF6VectorIjLm0ENS5_15CrashOnOverflowELm16ENS5_10FastMallocEEEEE, 
                       __Z34wgpuRenderBundleEncoderDrawIndexedP27WGPURenderBundleEncoderImpljjjij, 
                       __Z34wgpuRenderBundleEncoderSetPipelineP27WGPURenderBundleEncoderImplP22WGPURenderPipelineImpl, 
                       __Z34wgpuRenderPassEncoderPopDebugGroupP25WGPURenderPassEncoderImpl, 
                       __Z34wgpuShaderModuleGetCompilationInfoP20WGPUShaderModuleImplPFv32WGPUCompilationInfoRequestStatusPK19WGPUCompilationInfoPvES5_, 
                       __Z34wgpuSwapChainGetCurrentTextureViewP17WGPUSwapChainImpl, 
                       __Z35wgpuBindGroupUpdateExternalTexturesP17WGPUBindGroupImplP23WGPUExternalTextureImpl, 
                       __Z35wgpuCommandEncoderInsertDebugMarkerP22WGPUCommandEncoderImplPKc, 
                       __Z35wgpuComputePassEncoderPopDebugGroupP26WGPUComputePassEncoderImpl, 
                       __Z35wgpuDeviceCreateRenderBundleEncoderP14WGPUDeviceImplPK33WGPURenderBundleEncoderDescriptor, 
                       __Z35wgpuDeviceCreateRenderPipelineAsyncP14WGPUDeviceImplPK28WGPURenderPipelineDescriptorPFv29WGPUCreatePipelineAsyncStatusP22WGPURenderPipelineImplON3WTF6StringEPvESA_, 
                       __Z35wgpuRenderBundleEncoderDrawIndirectP27WGPURenderBundleEncoderImplP14WGPUBufferImply, 
                       __Z35wgpuRenderBundleEncoderSetBindGroupP27WGPURenderBundleEncoderImpljP17WGPUBindGroupImplmPKj, 
                       __Z35wgpuRenderPassEncoderExecuteBundlesP25WGPURenderPassEncoderImplmPKP20WGPURenderBundleImpl, 
                       __Z35wgpuRenderPassEncoderPushDebugGroupP25WGPURenderPassEncoderImplPKc, 
                       __Z35wgpuRenderPassEncoderSetIndexBufferP25WGPURenderPassEncoderImplP14WGPUBufferImpl15WGPUIndexFormatyy, 
                       __Z35wgpuRenderPassEncoderSetScissorRectP25WGPURenderPassEncoderImpljjjj, 
                       __Z36wgpuCommandEncoderCopyBufferToBufferP22WGPUCommandEncoderImplP14WGPUBufferImplyS2_yy, 
                       __Z36wgpuComputePassEncoderPushDebugGroupP26WGPUComputePassEncoderImplPKc, 
                       __Z36wgpuDeviceCreateComputePipelineAsyncP14WGPUDeviceImplPK29WGPUComputePipelineDescriptorPFv29WGPUCreatePipelineAsyncStatusP23WGPUComputePipelineImplON3WTF6StringEPvESA_, 
                       __Z36wgpuDeviceSetUncapturedErrorCallbackP14WGPUDeviceImplPFv13WGPUErrorTypePKcPvES4_, 
                       __Z36wgpuRenderBundleEncoderPopDebugGroupP27WGPURenderBundleEncoderImpl, 
                       __Z36wgpuRenderPassEncoderSetVertexBufferP25WGPURenderPassEncoderImpljP14WGPUBufferImplyy, 
                       __Z36wgpuRenderPipelineGetBindGroupLayoutP22WGPURenderPipelineImplj, 
                       __Z36wgpuSwapChainGetTextureAsNativeImageP17WGPUSwapChainImpljRb, 
                       __Z36wgpuXRSubImageGetDepthStencilTextureP18WGPUXRSubImageImpl, 
                       __Z37wgpuCommandEncoderCopyBufferToTextureP22WGPUCommandEncoderImplPK19WGPUImageCopyBufferPK20WGPUImageCopyTexturePK12WGPUExtent3D, 
                       __Z37wgpuCommandEncoderCopyTextureToBufferP22WGPUCommandEncoderImplPK20WGPUImageCopyTexturePK19WGPUImageCopyBufferPK12WGPUExtent3D, 
                       __Z37wgpuComputePipelineGetBindGroupLayoutP23WGPUComputePipelineImplj, 
                       __Z37wgpuRenderBundleEncoderPushDebugGroupP27WGPURenderBundleEncoderImplPKc, 
                       __Z37wgpuRenderBundleEncoderSetIndexBufferP27WGPURenderBundleEncoderImplP14WGPUBufferImpl15WGPUIndexFormatyy, 
                       __Z37wgpuRenderPassEncoderSetBlendConstantP25WGPURenderPassEncoderImplPK9WGPUColor, 
                       __Z38wgpuCommandEncoderCopyTextureToTextureP22WGPUCommandEncoderImplPK20WGPUImageCopyTextureS3_PK12WGPUExtent3D, 
                       __Z38wgpuDeviceClearUncapturedErrorCallbackP14WGPUDeviceImpl, 
                       __Z38wgpuRenderBundleEncoderSetVertexBufferP27WGPURenderBundleEncoderImpljP14WGPUBufferImplyy, 
                       __Z38wgpuRenderPassEncoderEndOcclusionQueryP25WGPURenderPassEncoderImpl, 
                       __Z38wgpuRenderPassEncoderInsertDebugMarkerP25WGPURenderPassEncoderImplPKc, 
                       __Z39wgpuComputePassEncoderInsertDebugMarkerP26WGPUComputePassEncoderImplPKc, 
                       __Z40wgpuComputePassEncoderDispatchWorkgroupsP26WGPUComputePassEncoderImpljjj, 
                       __Z40wgpuDeviceSetDeviceLostCallbackWithBlockP14WGPUDeviceImplU13block_pointerFv20WGPUDeviceLostReasonPKcE, 
                       __Z40wgpuRenderBundleEncoderInsertDebugMarkerP27WGPURenderBundleEncoderImplPKc, 
                       __Z40wgpuRenderPassEncoderBeginOcclusionQueryP25WGPURenderPassEncoderImplj, 
                       __Z40wgpuRenderPassEncoderDrawIndexedIndirectP25WGPURenderPassEncoderImplP14WGPUBufferImply, 
                       __Z40wgpuRenderPassEncoderSetStencilReferenceP25WGPURenderPassEncoderImplj, 
                       __Z42wgpuRenderBundleEncoderDrawIndexedIndirectP27WGPURenderBundleEncoderImplP14WGPUBufferImply, 
                       __Z48wgpuComputePassEncoderDispatchWorkgroupsIndirectP26WGPUComputePassEncoderImplP14WGPUBufferImply, 
                       __Z53wgpuRenderBundleEncoderSetBindGroupWithDynamicOffsetsP27WGPURenderBundleEncoderImpljP17WGPUBindGroupImplONSt3__18optionalIN3WTF6VectorIjLm0ENS5_15CrashOnOverflowELm16ENS5_10FastMallocEEEEE, 
                       __ZN15WebGPU_Internal14LogWebGPUSwiftE ]
  - targets:         [ arm64-macos, arm64e-macos ]
    symbols:         [ '_$s6WebGPU023CommandEncoder_runClearD6_thunk07commandD0013attachmentsToF0022depthStencilAttachmentjF00kmjF007stencilmjF00kF5Value0nfO008existingD0ySoAAO0cD0V_So19NSMutableDictionaryCSo10MTLTexture_pSgzS2bSds6UInt32VSo09MTLRendercD0_pSgtF', 
                       '_$s6WebGPU027CommandEncoder_copyBufferToF6_thunk07commandD06source0J6Offset11destination0lK04sizeySoAAO0cD0V_AI0F0Vs6UInt64VAm2OtF', 
                       '_$s6WebGPU028CommandEncoder_copyTextureToF6_thunk07commandD06source11destination0E4SizeySoAAO0cD0V_So013WGPUImageCopyF0VAKSo12WGPUExtent3DVtF', 
                       '_$s6WebGPU11clearBuffer14commandEncoder6buffer6offset4sizeySoAAO07CommandF0V_AG0D0Vs6UInt64VAMztF', 
                       '_$s6WebGPU15resolveQuerySet14commandEncoder05queryE005firstD00H5Count11destination0K6OffsetySoAAO07CommandG0V_AI0dE0Vs6UInt32VAoI6BufferVs6UInt64VtF', 
                       '_$s6WebGPU21Buffer_copyFrom_thunk_4from6offsetySoAAO0C0V_So3stdO3__1O0080span__cxxConstCUnsignedChar_CUnsignedLong_18446744073709551615_BECFzGvayFakaBmobVSitF', 
                       '_$s6WebGPU23Queue_writeBuffer_thunk5queue6buffer0H6Offset4dataySoAAO0C0V_So9MTLBuffer_ps6UInt64VSo3stdO3__1O0066spanCUnsignedChar_CUnsignedLong_18446744073709551615_cjCAvrsaIAaEeVtF', 
                       '_$s6WebGPU27Buffer_getMappedRange_thunk_6offset4sizeSo3stdO3__1O0066spanCUnsignedChar_CUnsignedLong_18446744073709551615_cjCAvrsaIAaEeVSoAAO0C0V_S2itF', 
                       '_$s6WebGPU27CommandEncoder_finish_thunk07commandD010descriptorSo3WTFO00133RefWebGPUCommandBufferWTFRawPtrTraitsWebGPUCommandBufferWTFDefaultRefDerefTraitsWebGPUCommandBuffer_GeACGbIaHJhJaAmsassBaIEldbJbBnxbaVSoAAO0cD0V_So27WGPUCommandBufferDescriptorVtF', 
                       '_$s6WebGPU36CommandEncoder_beginRenderPass_thunk07commandD010descriptorSo3WTFO00145RefWebGPURenderPassEncoderWTFRawPtrTraitsWebGPURenderPassEncoderWTFDefaultRefDerefTraitsWebGPURenderPassEncoder_AEAGBcdbGCiebEmwaswBaIAnhbBcyoAbaVSoAAO0cD0V_So010WGPURenderG10DescriptorVtF', 
                       '_$s6WebGPU37CommandEncoder_beginComputePass_thunk07commandD010descriptorSo3WTFO00148RefWebGPUComputePassEncoderWTFRawPtrTraitsWebGPUComputePassEncoderWTFDefaultRefDerefTraitsWebGPUComputePassEncoder_hcGJCcebFFifbImxasxBaIEnibCcEoBbaVSoAAO0cD0V_So011WGPUComputeG10DescriptorVtF', 
                       '_$s6WebGPU40CommandEncoder_copyBufferToTexture_thunk07commandD06source11destination0E4SizeySoAAO0cD0V_So013WGPUImageCopyF0VSo0noH0VSo12WGPUExtent3DVtF', 
                       '_$s6WebGPU40CommandEncoder_copyTextureToBuffer_thunk07commandD06source11destination0E4SizeySoAAO0cD0V_So013WGPUImageCopyF0VSo0noH0VSo12WGPUExtent3DVtF', 
                       '_$s6WebGPU41CommandEncoder_clearTextureIfNeeded_thunk07commandD011destination5sliceySoAAO0cD0V_So013WGPUImageCopyF0VSutF', 
                       '_$sSo12DDBridgeEdgeC6WebGPUEABycfC', '_$sSo12DDBridgeEdgeC6WebGPUEABycfc', 
                       '_$sSo12DDBridgeEdgeCMa', '_$sSo12DDBridgeNodeC6WebGPUEABycfC', 
                       '_$sSo12DDBridgeNodeC6WebGPUEABycfc', '_$sSo12DDBridgeNodeCMa', 
                       '_$sSo13DDValueStringC6WebGPUEABycfC', '_$sSo13DDValueStringC6WebGPUEABycfc', 
                       '_$sSo13DDValueStringCMa', '_$sSo15DDBridgeBuiltinC6WebGPUEABycfC', 
                       '_$sSo15DDBridgeBuiltinC6WebGPUEABycfc', '_$sSo15DDBridgeBuiltinCMa', 
                       '_$sSo15DDBridgePrimvarC6WebGPUEABycfC', '_$sSo15DDBridgePrimvarC6WebGPUEABycfc', 
                       '_$sSo15DDBridgePrimvarCMa', '_$sSo15DDBridgeSetPartC6WebGPUEABycfC', 
                       '_$sSo15DDBridgeSetPartC6WebGPUEABycfc', '_$sSo15DDBridgeSetPartCMa', 
                       '_$sSo16DDBridgeMeshPartC6WebGPUEABycfC', '_$sSo16DDBridgeMeshPartC6WebGPUEABycfc', 
                       '_$sSo16DDBridgeMeshPartCMa', '_$sSo16DDBridgeReceiverC6WebGPUEABycfC', 
                       '_$sSo16DDBridgeReceiverC6WebGPUEABycfc', '_$sSo16DDBridgeReceiverCMa', 
                       '_$sSo18DDBridgeImageAssetC6WebGPUEABycfC', '_$sSo18DDBridgeImageAssetC6WebGPUEABycfc', 
                       '_$sSo18DDBridgeImageAssetCMa', '_$sSo18DDBridgeUpdateMeshC6WebGPUEABycfC', 
                       '_$sSo18DDBridgeUpdateMeshC6WebGPUEABycfc', '_$sSo18DDBridgeUpdateMeshCMa', 
                       '_$sSo19DDBridgeInputOutputC6WebGPUEABycfC', '_$sSo19DDBridgeInputOutputC6WebGPUEABycfc', 
                       '_$sSo19DDBridgeInputOutputCMa', '_$sSo20DDBridgeVertexLayoutC6WebGPUEABycfC', 
                       '_$sSo20DDBridgeVertexLayoutC6WebGPUEABycfc', '_$sSo20DDBridgeVertexLayoutCMa', 
                       '_$sSo21DDBridgeMaterialGraphC6WebGPUEABycfC', '_$sSo21DDBridgeMaterialGraphC6WebGPUEABycfc', 
                       '_$sSo21DDBridgeMaterialGraphCMa', '_$sSo22DDBridgeAddMeshRequestC6WebGPUEABycfC', 
                       '_$sSo22DDBridgeAddMeshRequestC6WebGPUEABycfc', '_$sSo22DDBridgeAddMeshRequestCMa', 
                       '_$sSo22DDBridgeSetRenderFlagsC6WebGPUEABycfC', '_$sSo22DDBridgeSetRenderFlagsC6WebGPUEABycfc', 
                       '_$sSo22DDBridgeSetRenderFlagsCMa', '_$sSo23DDBridgeChainedFloat4x4C6WebGPUEABycfC', 
                       '_$sSo23DDBridgeChainedFloat4x4C6WebGPUEABycfc', '_$sSo23DDBridgeChainedFloat4x4CMa', 
                       '_$sSo23DDBridgeReplaceVerticesC6WebGPUEABycfC', '_$sSo23DDBridgeReplaceVerticesC6WebGPUEABycfc', 
                       '_$sSo23DDBridgeReplaceVerticesCMa', '_$sSo25DDBridgeAddTextureRequestC6WebGPUEABycfC', 
                       '_$sSo25DDBridgeAddTextureRequestC6WebGPUEABycfc', '_$sSo25DDBridgeAddTextureRequestCMa', 
                       '_$sSo25DDBridgeConstantContainerC6WebGPUEABycfC', '_$sSo25DDBridgeConstantContainerC6WebGPUEABycfc', 
                       '_$sSo25DDBridgeConstantContainerCMa', '_$sSo26DDBridgeAddMaterialRequestC6WebGPUEABycfC', 
                       '_$sSo26DDBridgeAddMaterialRequestC6WebGPUEABycfc', '_$sSo26DDBridgeAddMaterialRequestCMa', 
                       '_$sSo28DDBridgeUpdateTextureRequestC6WebGPUEABycfC', '_$sSo28DDBridgeUpdateTextureRequestC6WebGPUEABycfc', 
                       '_$sSo28DDBridgeUpdateTextureRequestCMa', '_$sSo29DDBridgeUpdateMaterialRequestC6WebGPUEABycfC', 
                       '_$sSo29DDBridgeUpdateMaterialRequestC6WebGPUEABycfc', '_$sSo29DDBridgeUpdateMaterialRequestCMa', 
                       '_$sSo29DDBridgeVertexAttributeFormatC6WebGPUEABycfC', '_$sSo29DDBridgeVertexAttributeFormatC6WebGPUEABycfc', 
                       '_$sSo29DDBridgeVertexAttributeFormatCMa', '_$sSo6WebGPUO14CommandEncoderVAAE012copyBufferToF06source0H6Offset11destination0jI04sizeyAB0F0V_s6UInt64VAl2NtF', 
                       '_$sSo6WebGPUO14CommandEncoderVAAE013copyTextureToF06source11destination0E4SizeySo013WGPUImageCopyF0V_AJSo12WGPUExtent3DVtF', 
                       '_$sSo6WebGPUO14CommandEncoderVAAE08runClearD0013attachmentsToF0022depthStencilAttachmenthF00ikhF007stencilkhF00iF5Value0lfM008existingD0ySDySo8NSNumberCSo010TextureAndF5ColorCG_So10MTLTexture_pSgzS2bSds6UInt32VSo09MTLRendercD0_pSgtF', 
                       '_$sSo6WebGPUO14CommandEncoderVAAE11clearBuffer6buffer6offset4sizeyAB0F0V_s6UInt64VALztF', 
                       '_$sSo6WebGPUO14CommandEncoderVAAE15beginRenderPass10descriptorSo3WTFO00145RefWebGPURenderPassEncoderWTFRawPtrTraitsWebGPURenderPassEncoderWTFDefaultRefDerefTraitsWebGPURenderPassEncoder_AEAGBcdbGCiebEmwaswBaIAnhbBcyoAbaVSo010WGPURenderG10DescriptorV_tF', 
                       '_$sSo6WebGPUO14CommandEncoderVAAE15resolveQuerySet_05firstF010queryCount11destination0K6OffsetyAB0fG0V_s6UInt32VAmB6BufferVs6UInt64VtF', 
                       '_$sSo6WebGPUO14CommandEncoderVAAE16beginComputePass10descriptorSo3WTFO00148RefWebGPUComputePassEncoderWTFRawPtrTraitsWebGPUComputePassEncoderWTFDefaultRefDerefTraitsWebGPUComputePassEncoder_hcGJCcebFFifbImxasxBaIEnibCcEoBbaVSo011WGPUComputeG10DescriptorV_tF', 
                       '_$sSo6WebGPUO14CommandEncoderVAAE19copyBufferToTexture6source11destination0E4SizeySo013WGPUImageCopyF0V_So0lmH0VSo12WGPUExtent3DVtF', 
                       '_$sSo6WebGPUO14CommandEncoderVAAE19copyTextureToBuffer6source11destination0E4SizeySo013WGPUImageCopyF0V_So0lmH0VSo12WGPUExtent3DVtF', 
                       '_$sSo6WebGPUO14CommandEncoderVAAE20clearTextureIfNeeded11destination5sliceySo013WGPUImageCopyF0V_SutF', 
                       '_$sSo6WebGPUO14CommandEncoderVAAE23validateResolveQuerySet05queryH005firstG00I5Count11destination0L6OffsetSbAB0gH0V_s6UInt32VAnB6BufferVs6UInt64VtF', 
                       '_$sSo6WebGPUO14CommandEncoderVAAE6finish10descriptorSo3WTFO00133RefWebGPUCommandBufferWTFRawPtrTraitsWebGPUCommandBufferWTFDefaultRefDerefTraitsWebGPUCommandBuffer_GeACGbIaHJhJaAmsassBaIEldbJbBnxbaVSo27WGPUCommandBufferDescriptorV_tF', 
                       '_$sSo6WebGPUO5QueueVAAE11writeBuffer6buffer0F6Offset4dataySo9MTLBuffer_p_s6UInt64Vs11MutableSpanVys5UInt8VGntF', 
                       '_$sSo6WebGPUO6BufferVAAE14getMappedRange6offset4sizeSo3stdO3__1O0066spanCUnsignedChar_CUnsignedLong_18446744073709551615_cjCAvrsaIAaEeVSi_SitF' ]
    objc-classes:    [ DDBridgeAddMaterialRequest, DDBridgeAddMeshRequest, DDBridgeAddTextureRequest, 
                       DDBridgeBuiltin, DDBridgeChainedFloat4x4, DDBridgeConstantContainer, 
                       DDBridgeEdge, DDBridgeImageAsset, DDBridgeInputOutput, DDBridgeMaterialGraph, 
                       DDBridgeMeshPart, DDBridgeNode, DDBridgePrimvar, DDBridgeReceiver, 
                       DDBridgeReplaceVertices, DDBridgeSetPart, DDBridgeSetRenderFlags, 
                       DDBridgeUpdateMaterialRequest, DDBridgeUpdateMesh, DDBridgeUpdateTextureRequest, 
                       DDBridgeVertexAttributeFormat, DDBridgeVertexLayout, DDValueString ]
...
